target datalayout = "e-m:e-p270:32:32-p271:32:32-p272:64:64-i64:64-i128:128-f80:128-n8:16:32:64-S128"
target triple = "x86_64-pc-linux-gnu"

; Function Attrs: mustprogress uwtable
define ptr @u_memrchr_77(ptr noundef %0, i16 noundef zeroext %1, i32 noundef %2) #0 {
  %4 = alloca ptr, align 8
  %5 = alloca ptr, align 8
  %6 = alloca i16, align 2
  %7 = alloca i32, align 4
  %8 = alloca ptr, align 8
  %9 = alloca i32, align 4
  store ptr %0, ptr %5, align 8, !tbaa !3
  store i16 %1, ptr %6, align 2, !tbaa !10
  store i32 %2, ptr %7, align 4, !tbaa !8
  %10 = load i32, ptr %7, align 4, !tbaa !8
  %11 = icmp sle i32 %10, 0
  br i1 %11, label %12, label %13

12:                                               ; preds = %3
  store ptr null, ptr %4, align 8
  br label %44

13:                                               ; preds = %3
  %14 = load i16, ptr %6, align 2, !tbaa !10
  %15 = zext i16 %14 to i32
  %16 = and i32 %15, -2048
  %17 = icmp eq i32 %16, 55296
  br i1 %17, label %18, label %22

18:                                               ; preds = %13
  %19 = load ptr, ptr %5, align 8, !tbaa !3
  %20 = load i32, ptr %7, align 4, !tbaa !8
  %21 = call ptr @u_strFindLast_77(ptr noundef %19, i32 noundef %20, ptr noundef %6, i32 noundef 1)
  store ptr %21, ptr %4, align 8
  br label %44

22:                                               ; preds = %13
  call void @llvm.lifetime.start.p0(i64 8, ptr %8) #7
  %23 = load ptr, ptr %5, align 8, !tbaa !3
  %24 = load i32, ptr %7, align 4, !tbaa !8
  %25 = sext i32 %24 to i64
  %26 = getelementptr inbounds i16, ptr %23, i64 %25
  store ptr %26, ptr %8, align 8, !tbaa !3
  br label %27

27:                                               ; preds = %38, %22
  %28 = load ptr, ptr %8, align 8, !tbaa !3
  %29 = getelementptr inbounds i16, ptr %28, i32 -1
  store ptr %29, ptr %8, align 8, !tbaa !3
  %30 = load i16, ptr %29, align 2, !tbaa !10
  %31 = zext i16 %30 to i32
  %32 = load i16, ptr %6, align 2, !tbaa !10
  %33 = zext i16 %32 to i32
  %34 = icmp eq i32 %31, %33
  br i1 %34, label %35, label %37

35:                                               ; preds = %27
  %36 = load ptr, ptr %8, align 8, !tbaa !3
  store ptr %36, ptr %4, align 8
  store i32 1, ptr %9, align 4
  br label %43

37:                                               ; preds = %27
  br label %38

38:                                               ; preds = %37
  %39 = load ptr, ptr %5, align 8, !tbaa !3
  %40 = load ptr, ptr %8, align 8, !tbaa !3
  %41 = icmp ne ptr %39, %40
  br i1 %41, label %27, label %42, !llvm.loop !27

42:                                               ; preds = %38
  store ptr null, ptr %4, align 8
  store i32 1, ptr %9, align 4
  br label %43

43:                                               ; preds = %42, %35
  call void @llvm.lifetime.end.p0(i64 8, ptr %8) #7
  br label %44

44:                                               ; preds = %43, %18, %12
  %45 = load ptr, ptr %4, align 8
  ret ptr %45
}

; Function Attrs: mustprogress uwtable
define ptr @u_memrchr32_77(ptr noundef %0, i32 noundef %1, i32 noundef %2) #0 {
  %4 = alloca ptr, align 8
  %5 = alloca ptr, align 8
  %6 = alloca i32, align 4
  %7 = alloca i32, align 4
  %8 = alloca ptr, align 8
  %9 = alloca i16, align 2
  %10 = alloca i16, align 2
  %11 = alloca i32, align 4
  store ptr %0, ptr %5, align 8, !tbaa !3
  store i32 %1, ptr %6, align 4, !tbaa !8
  store i32 %2, ptr %7, align 4, !tbaa !8
  %12 = load i32, ptr %6, align 4, !tbaa !8
  %13 = icmp ule i32 %12, 65535
  br i1 %13, label %14, label %20

14:                                               ; preds = %3
  %15 = load ptr, ptr %5, align 8, !tbaa !3
  %16 = load i32, ptr %6, align 4, !tbaa !8
  %17 = trunc i32 %16 to i16
  %18 = load i32, ptr %7, align 4, !tbaa !8
  %19 = call ptr @u_memrchr_77(ptr noundef %15, i16 noundef zeroext %17, i32 noundef %18)
  store ptr %19, ptr %4, align 8
  br label %68

20:                                               ; preds = %3
  %21 = load i32, ptr %7, align 4, !tbaa !8
  %22 = icmp slt i32 %21, 2
  br i1 %22, label %23, label %24

23:                                               ; preds = %20
  store ptr null, ptr %4, align 8
  br label %68

24:                                               ; preds = %20
  %25 = load i32, ptr %6, align 4, !tbaa !8
  %26 = icmp ule i32 %25, 1114111
  br i1 %26, label %27, label %67

27:                                               ; preds = %24
  call void @llvm.lifetime.start.p0(i64 8, ptr %8) #7
  %28 = load ptr, ptr %5, align 8, !tbaa !3
  %29 = load i32, ptr %7, align 4, !tbaa !8
  %30 = sext i32 %29 to i64
  %31 = getelementptr inbounds i16, ptr %28, i64 %30
  %32 = getelementptr inbounds i16, ptr %31, i64 -1
  store ptr %32, ptr %8, align 8, !tbaa !3
  call void @llvm.lifetime.start.p0(i64 2, ptr %9) #7
  %33 = load i32, ptr %6, align 4, !tbaa !8
  %34 = ashr i32 %33, 10
  %35 = add nsw i32 %34, 55232
  %36 = trunc i32 %35 to i16
  store i16 %36, ptr %9, align 2, !tbaa !10
  call void @llvm.lifetime.start.p0(i64 2, ptr %10) #7
  %37 = load i32, ptr %6, align 4, !tbaa !8
  %38 = and i32 %37, 1023
  %39 = or i32 %38, 56320
  %40 = trunc i32 %39 to i16
  store i16 %40, ptr %10, align 2, !tbaa !10
  br label %41

41:                                               ; preds = %60, %27
  %42 = load ptr, ptr %8, align 8, !tbaa !3
  %43 = load i16, ptr %42, align 2, !tbaa !10
  %44 = zext i16 %43 to i32
  %45 = load i16, ptr %10, align 2, !tbaa !10
  %46 = zext i16 %45 to i32
  %47 = icmp eq i32 %44, %46
  br i1 %47, label %48, label %59

48:                                               ; preds = %41
  %49 = load ptr, ptr %8, align 8, !tbaa !3
  %50 = getelementptr inbounds i16, ptr %49, i64 -1
  %51 = load i16, ptr %50, align 2, !tbaa !10
  %52 = zext i16 %51 to i32
  %53 = load i16, ptr %9, align 2, !tbaa !10
  %54 = zext i16 %53 to i32
  %55 = icmp eq i32 %52, %54
  br i1 %55, label %56, label %59

56:                                               ; preds = %48
  %57 = load ptr, ptr %8, align 8, !tbaa !3
  %58 = getelementptr inbounds i16, ptr %57, i64 -1
  store ptr %58, ptr %4, align 8
  store i32 1, ptr %11, align 4
  br label %66

59:                                               ; preds = %48, %41
  br label %60

60:                                               ; preds = %59
  %61 = load ptr, ptr %5, align 8, !tbaa !3
  %62 = load ptr, ptr %8, align 8, !tbaa !3
  %63 = getelementptr inbounds i16, ptr %62, i32 -1
  store ptr %63, ptr %8, align 8, !tbaa !3
  %64 = icmp ne ptr %61, %63
  br i1 %64, label %41, label %65, !llvm.loop !29

65:                                               ; preds = %60
  store ptr null, ptr %4, align 8
  store i32 1, ptr %11, align 4
  br label %66

66:                                               ; preds = %65, %56
  call void @llvm.lifetime.end.p0(i64 2, ptr %10) #7
  call void @llvm.lifetime.end.p0(i64 2, ptr %9) #7
  call void @llvm.lifetime.end.p0(i64 8, ptr %8) #7
  br label %68

67:                                               ; preds = %24
  store ptr null, ptr %4, align 8
  br label %68

68:                                               ; preds = %67, %66, %23, %14
  %69 = load ptr, ptr %4, align 8
  ret ptr %69
}