; Function Attrs: mustprogress nofree norecurse nosync nounwind willreturn memory(argmem: read) uwtable
define ptr @u_memrchr32_77(ptr noundef readonly %0, i32 noundef %1, i32 noundef %2) local_unnamed_addr #2 {
  %4 = alloca i16, align 2
  %5 = icmp ult i32 %1, 65536
  br i1 %5, label %6, label %22

6:                                                ; preds = %3
  %7 = trunc nuw i32 %1 to i16
  call void @llvm.lifetime.start.p0(i64 2, ptr nonnull %4)
  store i16 %7, ptr %4, align 2, !tbaa !3
  %8 = icmp slt i32 %2, 1
  br i1 %8, label %u_memrchr_77.exit, label %9

9:                                                ; preds = %6
  %10 = and i16 %7, -2048
  %11 = icmp eq i16 %10, -10240
  br i1 %11, label %12, label %14

12:                                               ; preds = %9
  %13 = call ptr @u_strFindLast_77(ptr noundef readonly %0, i32 noundef %2, ptr noundef nonnull %4, i32 noundef 1)
  br label %u_memrchr_77.exit

14:                                               ; preds = %9
  %15 = zext nneg i32 %2 to i64
  %16 = getelementptr inbounds nuw i16, ptr %0, i64 %15
  br label %17

17:                                               ; preds = %21, %14
  %.0.i = phi ptr [ %16, %14 ], [ %18, %21 ]
  %18 = getelementptr inbounds i8, ptr %.0.i, i64 -2
  %19 = load i16, ptr %18, align 2, !tbaa !3
  %20 = icmp eq i16 %19, %7
  br i1 %20, label %u_memrchr_77.exit, label %21

21:                                               ; preds = %17
  %.not.i = icmp eq ptr %0, %18
  br i1 %.not.i, label %u_memrchr_77.exit, label %17, !llvm.loop !20

u_memrchr_77.exit:                                ; preds = %17, %21, %6, %12
  %.09.i = phi ptr [ %13, %12 ], [ null, %6 ], [ %18, %17 ], [ null, %21 ]
  call void @llvm.lifetime.end.p0(i64 2, ptr nonnull %4)
  br label %.loopexit

22:                                               ; preds = %3
  %23 = icmp sgt i32 %2, 1
  %24 = icmp ult i32 %1, 1114112
  %or.cond = and i1 %24, %23
  br i1 %or.cond, label %25, label %.loopexit

25:                                               ; preds = %22
  %26 = zext nneg i32 %2 to i64
  %27 = getelementptr inbounds nuw i16, ptr %0, i64 %26
  %28 = getelementptr inbounds i8, ptr %27, i64 -2
  %29 = lshr i32 %1, 10
  %30 = add nuw nsw i32 %29, 55232
  %31 = and i32 %1, 1023
  %32 = or disjoint i32 %31, 56320
  br label %33

33:                                               ; preds = %42, %25
  %.017 = phi ptr [ %28, %25 ], [ %43, %42 ]
  %34 = load i16, ptr %.017, align 2, !tbaa !3
  %35 = zext i16 %34 to i32
  %36 = icmp eq i32 %32, %35
  br i1 %36, label %37, label %42

37:                                               ; preds = %33
  %38 = getelementptr inbounds i8, ptr %.017, i64 -2
  %39 = load i16, ptr %38, align 2, !tbaa !3
  %40 = zext i16 %39 to i32
  %41 = icmp eq i32 %30, %40
  br i1 %41, label %.loopexit.loopexit.split.loop.exit, label %42

42:                                               ; preds = %33, %37
  %43 = getelementptr inbounds i8, ptr %.017, i64 -2
  %.not = icmp eq ptr %0, %43
  br i1 %.not, label %.loopexit, label %33, !llvm.loop !24

.loopexit.loopexit.split.loop.exit:               ; preds = %37
  %44 = getelementptr inbounds i8, ptr %.017, i64 -2
  br label %.loopexit

.loopexit:                                        ; preds = %42, %.loopexit.loopexit.split.loop.exit, %22, %u_memrchr_77.exit
  %.0 = phi ptr [ %.09.i, %u_memrchr_77.exit ], [ null, %22 ], [ %44, %.loopexit.loopexit.split.loop.exit ], [ null, %42 ]
  ret ptr %.0
}